; Function Attrs: mustprogress uwtable
define dso_local void @_ZN5vcpkg3msg13println_errorERKNS_15LocalizedStringE(ptr noundef nonnull align 8 dereferenceable(32) %0) local_unnamed_addr #3 personality ptr @__gxx_personality_v0 {
  %2 = alloca %"struct.vcpkg::LocalizedString", align 8
  call void @_ZN5vcpkg3msg12format_errorERKNS_15LocalizedStringE(ptr dead_on_unwind nonnull writable sret(%"struct.vcpkg::LocalizedString") align 8 %2, ptr noundef nonnull align 8 dereferenceable(32) %0)
  invoke void @_ZN5vcpkg3msg7printlnENS_5ColorERKNS_15LocalizedStringE(i8 noundef signext 49, ptr noundef nonnull align 8 dereferenceable(32) %2)
          to label %3 unwind label %4

3:                                                ; preds = %1
  call void @_ZNSt7__cxx1112basic_stringIcSt11char_traitsIcESaIcEED1Ev(ptr noundef nonnull align 8 dereferenceable(32) %2) #25
  ret void

4:                                                ; preds = %1
  %5 = landingpad { ptr, i32 }
          cleanup
  call void @_ZNSt7__cxx1112basic_stringIcSt11char_traitsIcESaIcEED1Ev(ptr noundef nonnull align 8 dereferenceable(32) %2) #25
  resume { ptr, i32 } %5
}